; Function Attrs: mustprogress uwtable
define dso_local void @_Z2slv() local_unnamed_addr #5 personality ptr @__gxx_personality_v0 {
if.end.i:
  %__ts.i = alloca %struct.timespec, align 8
  call void @llvm.lifetime.start.p0(i64 16, ptr nonnull %__ts.i)
  store i64 1, ptr %__ts.i, align 8
  %tv_nsec.i = getelementptr inbounds i8, ptr %__ts.i, i64 8
  store i64 0, ptr %tv_nsec.i, align 8
  br label %while.cond.i

while.cond.i:                                     ; preds = %land.rhs.i, %if.end.i
  %call11.i = call i32 @nanosleep(ptr noundef nonnull %__ts.i, ptr noundef nonnull %__ts.i)
  %cmp.i = icmp eq i32 %call11.i, -1
  br i1 %cmp.i, label %land.rhs.i, label %_ZNSt11this_thread9sleep_forIlSt5ratioILl1ELl1EEEEvRKNSt6chrono8durationIT_T0_EE.exit

land.rhs.i:                                       ; preds = %while.cond.i
  %call12.i = tail call ptr @__errno_location() #30
  %0 = load i32, ptr %call12.i, align 4
  %cmp13.i = icmp eq i32 %0, 4
  br i1 %cmp13.i, label %while.cond.i, label %_ZNSt11this_thread9sleep_forIlSt5ratioILl1ELl1EEEEvRKNSt6chrono8durationIT_T0_EE.exit, !llvm.loop !10

_ZNSt11this_thread9sleep_forIlSt5ratioILl1ELl1EEEEvRKNSt6chrono8durationIT_T0_EE.exit: ; preds = %while.cond.i, %land.rhs.i
  call void @llvm.lifetime.end.p0(i64 16, ptr nonnull %__ts.i)
  ret void
}